; Function Attrs: mustprogress uwtable
define void @_ZN7rocksdb14ThreadLocalPtr10StaticMeta16RemoveThreadDataEPNS_10ThreadDataE(ptr nonnull readnone align 8 captures(none) %0, ptr noundef %1) local_unnamed_addr #0 align 2 personality ptr @__gxx_personality_v0 {
  %3 = load atomic i8, ptr @_ZGVZN7rocksdb14ThreadLocalPtr8InstanceEvE4inst acquire, align 8
  %4 = icmp eq i8 %3, 0
  br i1 %4, label %5, label %_ZN7rocksdb14ThreadLocalPtr10StaticMeta5MutexEv.exit, !prof !4

5:                                                ; preds = %2
  %6 = tail call i32 @__cxa_guard_acquire(ptr nonnull @_ZGVZN7rocksdb14ThreadLocalPtr8InstanceEvE4inst) #19
  %.not.i.i = icmp eq i32 %6, 0
  br i1 %.not.i.i, label %_ZN7rocksdb14ThreadLocalPtr10StaticMeta5MutexEv.exit, label %7

7:                                                ; preds = %5
  %8 = invoke noalias noundef nonnull dereferenceable(232) ptr @_Znwm(i64 noundef 232) #20
          to label %9 unwind label %11

9:                                                ; preds = %7
  invoke void @_ZN7rocksdb14ThreadLocalPtr10StaticMetaC1Ev(ptr noundef nonnull align 8 dereferenceable(228) %8)
          to label %10 unwind label %13

10:                                               ; preds = %9
  store ptr %8, ptr @_ZZN7rocksdb14ThreadLocalPtr8InstanceEvE4inst, align 8, !tbaa !5
  tail call void @__cxa_guard_release(ptr nonnull @_ZGVZN7rocksdb14ThreadLocalPtr8InstanceEvE4inst) #19
  br label %_ZN7rocksdb14ThreadLocalPtr10StaticMeta5MutexEv.exit

11:                                               ; preds = %7
  %12 = landingpad { ptr, i32 }
          cleanup
  br label %15

13:                                               ; preds = %9
  %14 = landingpad { ptr, i32 }
          cleanup
  tail call void @_ZdlPvm(ptr noundef nonnull %8, i64 noundef 232) #21
  br label %15

15:                                               ; preds = %13, %11
  %.pn.i.i = phi { ptr, i32 } [ %14, %13 ], [ %12, %11 ]
  tail call void @__cxa_guard_abort(ptr nonnull @_ZGVZN7rocksdb14ThreadLocalPtr8InstanceEvE4inst) #19
  resume { ptr, i32 } %.pn.i.i

_ZN7rocksdb14ThreadLocalPtr10StaticMeta5MutexEv.exit: ; preds = %2, %5, %10
  %16 = load ptr, ptr @_ZZN7rocksdb14ThreadLocalPtr8InstanceEvE4inst, align 8, !tbaa !5
  %17 = getelementptr inbounds nuw i8, ptr %16, i64 184
  tail call void @_ZNK7rocksdb4port5Mutex10AssertHeldEv(ptr noundef nonnull align 8 dereferenceable(40) %17)
  %18 = getelementptr inbounds nuw i8, ptr %1, i64 32
  %19 = load ptr, ptr %18, align 8, !tbaa !40
  %20 = getelementptr inbounds nuw i8, ptr %1, i64 24
  %21 = load ptr, ptr %20, align 8, !tbaa !41
  %22 = getelementptr inbounds nuw i8, ptr %21, i64 32
  store ptr %19, ptr %22, align 8, !tbaa !40
  %23 = getelementptr inbounds nuw i8, ptr %19, i64 24
  store ptr %21, ptr %23, align 8, !tbaa !41
  store ptr %1, ptr %18, align 8, !tbaa !40
  store ptr %1, ptr %20, align 8, !tbaa !41
  ret void
}